; Function Attrs: mustprogress uwtable
define noundef ptr @_ZN11OpenImageIO6v3_1_027cineon_input_imageio_createEv() local_unnamed_addr #5 personality ptr @__gxx_personality_v0 {
  %1 = tail call noundef ptr @_ZN11OpenImageIO6v3_1_010ImageInputnwEm(i64 noundef 2296)
  invoke void @_ZN11OpenImageIO6v3_1_011CineonInputC2Ev(ptr noundef nonnull align 8 dereferenceable(2296) %1)
          to label %2 unwind label %3

2:                                                ; preds = %0
  ret ptr %1

3:                                                ; preds = %0
  %4 = landingpad { ptr, i32 }
          cleanup
  tail call void @_ZN11OpenImageIO6v3_1_010ImageInputdlEPv(ptr noundef nonnull %1) #25
  resume { ptr, i32 } %4
}